; Function Attrs: nounwind sspstrong uwtable
define internal fastcc i64 @dln_sym_func(ptr noundef nonnull %0, ptr noundef %1) unnamed_addr #0 {
  %3 = tail call ptr @dlsym(ptr noundef nonnull %0, ptr noundef %1) #9
  %4 = icmp eq ptr %3, null
  br i1 %4, label %5, label %11

5:                                                ; preds = %2
  %6 = tail call fastcc ptr @dln_strerror()
  %7 = tail call i64 @strlen(ptr noundef nonnull dereferenceable(1) %6) #11
  %8 = add i64 %7, 1
  %9 = alloca i8, i64 %8, align 16
  %10 = call fastcc nonnull ptr @ruby_nonempty_memcpy(ptr noundef %9, ptr noundef nonnull %6, i64 noundef %8) #12
  call void (ptr, ...) @rb_loaderror(ptr noundef nonnull @.str.4, ptr noundef nonnull %10, ptr noundef %1) #10
  unreachable

11:                                               ; preds = %2
  %12 = ptrtoint ptr %3 to i64
  ret i64 %12
}